target datalayout = "e-m:e-p270:32:32-p271:32:32-p272:64:64-i64:64-i128:128-f80:128-n8:16:32:64-S128"
target triple = "x86_64-pc-linux-gnu"

%struct.strbuf_t = type { ptr, i64, i64, i32, i32, i32 }
%struct.json_config_t = type { [256 x i32], [256 x i8], %struct.strbuf_t, i32, i32, i32, i32, i32, i32, i32, i32, i32 }

; Function Attrs: nounwind uwtable
define internal i32 @json_cfg_encode_keep_buffer(ptr noundef %0) #0 {
  %2 = alloca ptr, align 8
  %3 = alloca ptr, align 8
  %4 = alloca i32, align 4
  store ptr %0, ptr %2, align 8, !tbaa !4
  call void @llvm.lifetime.start.p0(i64 8, ptr %3) #9
  %5 = load ptr, ptr %2, align 8, !tbaa !4
  %6 = call ptr @json_arg_init(ptr noundef %5, i32 noundef 1)
  store ptr %6, ptr %3, align 8, !tbaa !15
  call void @llvm.lifetime.start.p0(i64 4, ptr %4) #9
  %7 = load ptr, ptr %3, align 8, !tbaa !15
  %8 = getelementptr inbounds nuw %struct.json_config_t, ptr %7, i32 0, i32 9
  %9 = load i32, ptr %8, align 8, !tbaa !16
  store i32 %9, ptr %4, align 4, !tbaa !9
  %10 = load ptr, ptr %2, align 8, !tbaa !4
  %11 = load ptr, ptr %3, align 8, !tbaa !15
  %12 = getelementptr inbounds nuw %struct.json_config_t, ptr %11, i32 0, i32 9
  %13 = call i32 @json_enum_option(ptr noundef %10, i32 noundef 1, ptr noundef %12, ptr noundef null, i32 noundef 1)
  %14 = load i32, ptr %4, align 4, !tbaa !9
  %15 = load ptr, ptr %3, align 8, !tbaa !15
  %16 = getelementptr inbounds nuw %struct.json_config_t, ptr %15, i32 0, i32 9
  %17 = load i32, ptr %16, align 8, !tbaa !16
  %18 = xor i32 %14, %17
  %19 = icmp ne i32 %18, 0
  br i1 %19, label %20, label %32

20:                                               ; preds = %1
  %21 = load ptr, ptr %3, align 8, !tbaa !15
  %22 = getelementptr inbounds nuw %struct.json_config_t, ptr %21, i32 0, i32 9
  %23 = load i32, ptr %22, align 8, !tbaa !16
  %24 = icmp ne i32 %23, 0
  br i1 %24, label %25, label %28

25:                                               ; preds = %20
  %26 = load ptr, ptr %3, align 8, !tbaa !15
  %27 = getelementptr inbounds nuw %struct.json_config_t, ptr %26, i32 0, i32 2
  call void @strbuf_init(ptr noundef %27, i64 noundef 0)
  br label %31

28:                                               ; preds = %20
  %29 = load ptr, ptr %3, align 8, !tbaa !15
  %30 = getelementptr inbounds nuw %struct.json_config_t, ptr %29, i32 0, i32 2
  call void @strbuf_free(ptr noundef %30)
  br label %31

31:                                               ; preds = %28, %25
  br label %32

32:                                               ; preds = %31, %1
  call void @llvm.lifetime.end.p0(i64 4, ptr %4) #9
  call void @llvm.lifetime.end.p0(i64 8, ptr %3) #9
  ret i32 1
}