; Function Attrs: nounwind uwtable
define internal noundef i32 @json_cfg_encode_keep_buffer(ptr noundef %0) #0 {
  %2 = tail call fastcc ptr @json_arg_init(ptr noundef %0, i32 noundef 1)
  %3 = getelementptr inbounds nuw i8, ptr %2, i64 1344
  %4 = load i32, ptr %3, align 8, !tbaa !19
  tail call fastcc void @json_enum_option(ptr noundef %0, ptr noundef nonnull %3, ptr noundef null)
  %5 = load i32, ptr %3, align 8, !tbaa !19
  %.not = icmp eq i32 %4, %5
  br i1 %.not, label %10, label %6

6:                                                ; preds = %1
  %.not8 = icmp eq i32 %5, 0
  %7 = getelementptr inbounds nuw i8, ptr %2, i64 1280
  br i1 %.not8, label %9, label %8

8:                                                ; preds = %6
  tail call void @strbuf_init(ptr noundef nonnull %7, i64 noundef 0) #12
  br label %10

9:                                                ; preds = %6
  tail call void @strbuf_free(ptr noundef nonnull %7) #12
  br label %10

10:                                               ; preds = %8, %9, %1
  ret i32 1
}